target datalayout = "e-m:e-p270:32:32-p271:32:32-p272:64:64-i64:64-i128:128-f80:128-n8:16:32:64-S128"
target triple = "x86_64-pc-linux-gnu"

%struct.redisObject = type { i32, i32, ptr }
%struct.hllhdr = type { [4 x i8], i8, [3 x i8], [8 x i8], [0 x i8] }

@.str.1 = private unnamed_addr constant [14 x i8] c"hyperloglog.c\00", align 1
@.str.4 = private unnamed_addr constant [29 x i8] c"(p-(uint8_t*)s) == sparselen\00", align 1
@.str.5 = private unnamed_addr constant [5 x i8] c"HYLL\00", align 1

; Function Attrs: nounwind uwtable
define dso_local ptr @createHLLObject() #0 {
  %1 = alloca ptr, align 8
  %2 = alloca ptr, align 8
  %3 = alloca ptr, align 8
  %4 = alloca ptr, align 8
  %5 = alloca i32, align 4
  %6 = alloca i32, align 4
  %7 = alloca i32, align 4
  %8 = alloca i32, align 4
  call void @llvm.lifetime.start.p0(i64 8, ptr %1) #15
  call void @llvm.lifetime.start.p0(i64 8, ptr %2) #15
  call void @llvm.lifetime.start.p0(i64 8, ptr %3) #15
  call void @llvm.lifetime.start.p0(i64 8, ptr %4) #15
  call void @llvm.lifetime.start.p0(i64 4, ptr %5) #15
  store i32 18, ptr %5, align 4, !tbaa !9
  call void @llvm.lifetime.start.p0(i64 4, ptr %6) #15
  store i32 16384, ptr %6, align 4, !tbaa !9
  %9 = load i32, ptr %5, align 4, !tbaa !9
  %10 = sext i32 %9 to i64
  %11 = call ptr @sdsnewlen(ptr noundef null, i64 noundef %10)
  store ptr %11, ptr %3, align 8, !tbaa !13
  %12 = load ptr, ptr %3, align 8, !tbaa !13
  %13 = getelementptr inbounds nuw i8, ptr %12, i64 16
  store ptr %13, ptr %4, align 8, !tbaa !13
  br label %14

14:                                               ; preds = %38, %0
  %15 = load i32, ptr %6, align 4, !tbaa !9
  %16 = icmp ne i32 %15, 0
  br i1 %16, label %17, label %44

17:                                               ; preds = %14
  call void @llvm.lifetime.start.p0(i64 4, ptr %7) #15
  store i32 16384, ptr %7, align 4, !tbaa !9
  %18 = load i32, ptr %7, align 4, !tbaa !9
  %19 = load i32, ptr %6, align 4, !tbaa !9
  %20 = icmp sgt i32 %18, %19
  br i1 %20, label %21, label %23

21:                                               ; preds = %17
  %22 = load i32, ptr %6, align 4, !tbaa !9
  store i32 %22, ptr %7, align 4, !tbaa !9
  br label %23

23:                                               ; preds = %21, %17
  br label %24

24:                                               ; preds = %23
  call void @llvm.lifetime.start.p0(i64 4, ptr %8) #15
  %25 = load i32, ptr %7, align 4, !tbaa !9
  %26 = sub nsw i32 %25, 1
  store i32 %26, ptr %8, align 4, !tbaa !9
  %27 = load i32, ptr %8, align 4, !tbaa !9
  %28 = ashr i32 %27, 8
  %29 = or i32 %28, 64
  %30 = trunc i32 %29 to i8
  %31 = load ptr, ptr %4, align 8, !tbaa !13
  store i8 %30, ptr %31, align 1, !tbaa !17
  %32 = load i32, ptr %8, align 4, !tbaa !9
  %33 = and i32 %32, 255
  %34 = trunc i32 %33 to i8
  %35 = load ptr, ptr %4, align 8, !tbaa !13
  %36 = getelementptr inbounds i8, ptr %35, i64 1
  store i8 %34, ptr %36, align 1, !tbaa !17
  call void @llvm.lifetime.end.p0(i64 4, ptr %8) #15
  br label %37

37:                                               ; preds = %24
  br label %38

38:                                               ; preds = %37
  %39 = load ptr, ptr %4, align 8, !tbaa !13
  %40 = getelementptr inbounds i8, ptr %39, i64 2
  store ptr %40, ptr %4, align 8, !tbaa !13
  %41 = load i32, ptr %7, align 4, !tbaa !9
  %42 = load i32, ptr %6, align 4, !tbaa !9
  %43 = sub nsw i32 %42, %41
  store i32 %43, ptr %6, align 4, !tbaa !9
  call void @llvm.lifetime.end.p0(i64 4, ptr %7) #15
  br label %14, !llvm.loop !85

44:                                               ; preds = %14
  %45 = load ptr, ptr %4, align 8, !tbaa !13
  %46 = load ptr, ptr %3, align 8, !tbaa !13
  %47 = ptrtoint ptr %45 to i64
  %48 = ptrtoint ptr %46 to i64
  %49 = sub i64 %47, %48
  %50 = load i32, ptr %5, align 4, !tbaa !9
  %51 = sext i32 %50 to i64
  %52 = icmp eq i64 %49, %51
  %53 = xor i1 %52, true
  %54 = xor i1 %53, true
  %55 = zext i1 %54 to i32
  %56 = sext i32 %55 to i64
  %57 = call i64 @llvm.expect.i64(i64 %56, i64 1)
  %58 = icmp ne i64 %57, 0
  br i1 %58, label %59, label %60

59:                                               ; preds = %44
  br label %62

60:                                               ; preds = %44
  call void @_serverAssert(ptr noundef @.str.4, ptr noundef @.str.1, i32 noundef 1371)
  call void @abort() #16
  unreachable

61:                                               ; No predecessors!
  br label %62

62:                                               ; preds = %61, %59
  %63 = load ptr, ptr %3, align 8, !tbaa !13
  %64 = call ptr @createObject(i32 noundef 0, ptr noundef %63)
  store ptr %64, ptr %1, align 8, !tbaa !23
  %65 = load ptr, ptr %1, align 8, !tbaa !23
  %66 = getelementptr inbounds nuw %struct.redisObject, ptr %65, i32 0, i32 2
  %67 = load ptr, ptr %66, align 8, !tbaa !25
  store ptr %67, ptr %2, align 8, !tbaa !27
  %68 = load ptr, ptr %2, align 8, !tbaa !27
  %69 = getelementptr inbounds nuw %struct.hllhdr, ptr %68, i32 0, i32 0
  %70 = getelementptr inbounds [4 x i8], ptr %69, i64 0, i64 0
  call void @llvm.memcpy.p0.p0.i64(ptr align 1 %70, ptr align 1 @.str.5, i64 4, i1 false)
  %71 = load ptr, ptr %2, align 8, !tbaa !27
  %72 = getelementptr inbounds nuw %struct.hllhdr, ptr %71, i32 0, i32 1
  store i8 1, ptr %72, align 1, !tbaa !17
  %73 = load ptr, ptr %1, align 8, !tbaa !23
  call void @llvm.lifetime.end.p0(i64 4, ptr %6) #15
  call void @llvm.lifetime.end.p0(i64 4, ptr %5) #15
  call void @llvm.lifetime.end.p0(i64 8, ptr %4) #15
  call void @llvm.lifetime.end.p0(i64 8, ptr %3) #15
  call void @llvm.lifetime.end.p0(i64 8, ptr %2) #15
  call void @llvm.lifetime.end.p0(i64 8, ptr %1) #15
  ret ptr %73
}