; Function Attrs: nounwind uwtable
define dso_local ptr @createHLLObject() local_unnamed_addr #5 {
  %1 = tail call ptr @sdsnewlen(ptr noundef null, i64 noundef 18) #20
  %2 = getelementptr inbounds nuw i8, ptr %1, i64 16
  store i8 127, ptr %2, align 1, !tbaa !11
  %3 = getelementptr inbounds nuw i8, ptr %1, i64 17
  store i8 -1, ptr %3, align 1, !tbaa !11
  %4 = tail call ptr @createObject(i32 noundef 0, ptr noundef %1) #20
  %5 = getelementptr inbounds nuw i8, ptr %4, i64 8
  %6 = load ptr, ptr %5, align 8, !tbaa !15
  store i32 1280072008, ptr %6, align 1
  %7 = getelementptr inbounds nuw i8, ptr %6, i64 4
  store i8 1, ptr %7, align 1, !tbaa !11
  ret ptr %4
}